target datalayout = "e-m:e-p270:32:32-p271:32:32-p272:64:64-i64:64-i128:128-f80:128-n8:16:32:64-S128"
target triple = "x86_64-pc-linux-gnu"

%struct.ma_vec3f = type { float, float, float }
%struct.ma_gainer_config = type { i32, i32 }
%struct.ma_gainer = type { %struct.ma_gainer_config, i32, float, ptr, ptr, ptr, i32 }
%struct.ma_atomic_vec3f = type { %struct.ma_vec3f, i32 }
%struct.ma_spatializer = type { i32, i32, ptr, i32, i32, i32, float, float, float, float, float, float, float, float, float, float, i32, %struct.ma_atomic_vec3f, %struct.ma_atomic_vec3f, %struct.ma_atomic_vec3f, float, float, %struct.ma_gainer, ptr, ptr, i32 }
%union.ma_atomic_if32 = type { i32 }

; Function Attrs: alwaysinline nounwind uwtable
define internal float @ma_atomic_exchange_explicit_f32(ptr noundef %0, float noundef %1, i32 noundef %2) #7 {
  %4 = alloca ptr, align 8
  %5 = alloca float, align 4
  %6 = alloca i32, align 4
  %7 = alloca %union.ma_atomic_if32, align 4
  %8 = alloca %union.ma_atomic_if32, align 4
  %9 = alloca i32, align 4
  %10 = alloca i32, align 4
  store ptr %0, ptr %4, align 8, !tbaa !353
  store float %1, ptr %5, align 4, !tbaa !339
  store i32 %2, ptr %6, align 4, !tbaa !8
  call void @llvm.lifetime.start.p0(i64 4, ptr %7) #16
  call void @llvm.lifetime.start.p0(i64 4, ptr %8) #16
  %11 = load float, ptr %5, align 4, !tbaa !339
  store float %11, ptr %8, align 4, !tbaa !14
  %12 = load ptr, ptr %4, align 8, !tbaa !353
  %13 = load i32, ptr %6, align 4, !tbaa !8
  %14 = load i32, ptr %8, align 4, !tbaa !14
  store i32 %14, ptr %9, align 4, !tbaa !8
  switch i32 %13, label %15 [
    i32 1, label %18
    i32 2, label %18
    i32 3, label %21
    i32 4, label %24
    i32 5, label %27
  ]

15:                                               ; preds = %3
  %16 = load i32, ptr %9, align 4
  %17 = atomicrmw volatile xchg ptr %12, i32 %16 monotonic, align 4
  store i32 %17, ptr %10, align 4
  br label %30

18:                                               ; preds = %3, %3
  %19 = load i32, ptr %9, align 4
  %20 = atomicrmw volatile xchg ptr %12, i32 %19 acquire, align 4
  store i32 %20, ptr %10, align 4
  br label %30

21:                                               ; preds = %3
  %22 = load i32, ptr %9, align 4
  %23 = atomicrmw volatile xchg ptr %12, i32 %22 release, align 4
  store i32 %23, ptr %10, align 4
  br label %30

24:                                               ; preds = %3
  %25 = load i32, ptr %9, align 4
  %26 = atomicrmw volatile xchg ptr %12, i32 %25 acq_rel, align 4
  store i32 %26, ptr %10, align 4
  br label %30

27:                                               ; preds = %3
  %28 = load i32, ptr %9, align 4
  %29 = atomicrmw volatile xchg ptr %12, i32 %28 seq_cst, align 4
  store i32 %29, ptr %10, align 4
  br label %30

30:                                               ; preds = %27, %24, %21, %18, %15
  %31 = load i32, ptr %10, align 4, !tbaa !8
  store i32 %31, ptr %7, align 4, !tbaa !14
  %32 = load float, ptr %7, align 4, !tbaa !14
  call void @llvm.lifetime.end.p0(i64 4, ptr %8) #16
  call void @llvm.lifetime.end.p0(i64 4, ptr %7) #16
  ret float %32
}

; Function Attrs: nounwind uwtable
define void @ma_spatializer_set_directional_attenuation_factor(ptr noundef %0, float noundef %1) #0 {
  %3 = alloca ptr, align 8
  %4 = alloca float, align 4
  store ptr %0, ptr %3, align 8, !tbaa !25
  store float %1, ptr %4, align 4, !tbaa !339
  %5 = load ptr, ptr %3, align 8, !tbaa !25
  %6 = icmp eq ptr %5, null
  br i1 %6, label %7, label %8

7:                                                ; preds = %2
  br label %13

8:                                                ; preds = %2
  %9 = load ptr, ptr %3, align 8, !tbaa !25
  %10 = getelementptr inbounds nuw %struct.ma_spatializer, ptr %9, i32 0, i32 15
  %11 = load float, ptr %4, align 4, !tbaa !339
  %12 = call float @ma_atomic_exchange_explicit_f32(ptr noundef %10, float noundef %11, i32 noundef 5)
  br label %13

13:                                               ; preds = %8, %7
  ret void
}