; Function Attrs: mustprogress nofree norecurse nounwind willreturn memory(argmem: readwrite, inaccessiblemem: readwrite) uwtable
define void @ma_spatializer_set_directional_attenuation_factor(ptr noundef %0, float noundef %1) local_unnamed_addr #27 {
  %3 = icmp eq ptr %0, null
  br i1 %3, label %8, label %4

4:                                                ; preds = %2
  %5 = getelementptr inbounds nuw i8, ptr %0, i64 64
  %6 = bitcast float %1 to i32
  %7 = atomicrmw volatile xchg ptr %5, i32 %6 seq_cst, align 4
  br label %8

8:                                                ; preds = %2, %4
  ret void
}